target datalayout = "e-m:e-p270:32:32-p271:32:32-p272:64:64-i64:64-i128:128-f80:128-n8:16:32:64-S128"
target triple = "x86_64-pc-linux-gnu"

%class.Node = type <{ ptr, ptr, ptr, i32, i32, i32, i32, i32, i32, i32, [4 x i8] }>
%"class.MergePrimitiveArrayStores::Status" = type <{ ptr, i8, [7 x i8] }>

; Function Attrs: mustprogress nounwind uwtable
define linkonce_odr hidden void @_ZN25MergePrimitiveArrayStores6StatusC2EP9StoreNodeb(ptr noundef nonnull align 8 dereferenceable(9) %0, ptr noundef %1, i1 noundef zeroext %2) unnamed_addr #1 comdat align 2 {
  %4 = alloca ptr, align 8
  %5 = alloca ptr, align 8
  %6 = alloca i8, align 1
  store ptr %0, ptr %4, align 8
  store ptr %1, ptr %5, align 8
  %7 = zext i1 %2 to i8
  store i8 %7, ptr %6, align 1
  %8 = load ptr, ptr %4, align 8
  %9 = getelementptr inbounds %"class.MergePrimitiveArrayStores::Status", ptr %8, i32 0, i32 0
  %10 = load ptr, ptr %5, align 8
  store ptr %10, ptr %9, align 8
  %11 = getelementptr inbounds %"class.MergePrimitiveArrayStores::Status", ptr %8, i32 0, i32 1
  %12 = load i8, ptr %6, align 1
  %13 = trunc i8 %12 to i1
  %14 = zext i1 %13 to i8
  store i8 %14, ptr %11, align 8
  ret void
}

; Function Attrs: mustprogress nounwind uwtable
define linkonce_odr hidden noundef ptr @_ZNK4Node8as_StoreEv(ptr noundef nonnull align 8 dereferenceable(52) %0) #1 comdat align 2 {
  %2 = alloca ptr, align 8
  store ptr %0, ptr %2, align 8
  %3 = load ptr, ptr %2, align 8
  ret ptr %3
}

; Function Attrs: mustprogress nounwind uwtable
define linkonce_odr hidden noundef zeroext i1 @_ZNK4Node8is_StoreEv(ptr noundef nonnull align 8 dereferenceable(52) %0) #1 comdat align 2 {
  %2 = alloca ptr, align 8
  store ptr %0, ptr %2, align 8
  %3 = load ptr, ptr %2, align 8
  %4 = getelementptr inbounds %class.Node, ptr %3, i32 0, i32 8
  %5 = load i32, ptr %4, align 4
  %6 = and i32 %5, 127
  %7 = icmp eq i32 %6, 80
  ret i1 %7
}

; Function Attrs: mustprogress nounwind uwtable
define linkonce_odr hidden { ptr, i8 } @_ZN25MergePrimitiveArrayStores6Status4makeEP9StoreNodeNS_9CFGStatusE(ptr noundef %0, i32 noundef %1) #1 comdat align 2 {
  %3 = alloca %"class.MergePrimitiveArrayStores::Status", align 8
  %4 = alloca ptr, align 8
  %5 = alloca i32, align 4
  store ptr %0, ptr %4, align 8
  store i32 %1, ptr %5, align 4
  %6 = load i32, ptr %5, align 4
  %7 = icmp eq i32 %6, 2
  br i1 %7, label %8, label %14

8:                                                ; preds = %2
  %9 = call { ptr, i8 } @_ZN25MergePrimitiveArrayStores6Status12make_failureEv()
  %10 = getelementptr inbounds { ptr, i8 }, ptr %3, i32 0, i32 0
  %11 = extractvalue { ptr, i8 } %9, 0
  store ptr %11, ptr %10, align 8
  %12 = getelementptr inbounds { ptr, i8 }, ptr %3, i32 0, i32 1
  %13 = extractvalue { ptr, i8 } %9, 1
  store i8 %13, ptr %12, align 8
  br label %18

14:                                               ; preds = %2
  %15 = load ptr, ptr %4, align 8
  %16 = load i32, ptr %5, align 4
  %17 = icmp eq i32 %16, 1
  call void @_ZN25MergePrimitiveArrayStores6StatusC2EP9StoreNodeb(ptr noundef nonnull align 8 dereferenceable(9) %3, ptr noundef %15, i1 noundef zeroext %17)
  br label %18

18:                                               ; preds = %14, %8
  %19 = load { ptr, i8 }, ptr %3, align 8
  ret { ptr, i8 } %19
}

; Function Attrs: mustprogress nounwind uwtable
define linkonce_odr hidden { ptr, i8 } @_ZN25MergePrimitiveArrayStores6Status12make_failureEv() #1 comdat align 2 {
  %1 = alloca %"class.MergePrimitiveArrayStores::Status", align 8
  call void @_ZN25MergePrimitiveArrayStores6StatusC2EP9StoreNodeb(ptr noundef nonnull align 8 dereferenceable(9) %1, ptr noundef null, i1 noundef zeroext false)
  %2 = load { ptr, i8 }, ptr %1, align 8
  ret { ptr, i8 } %2
}

; Function Attrs: mustprogress nounwind uwtable
define linkonce_odr hidden noundef ptr @_ZNK4Node9isa_StoreEv(ptr noundef nonnull align 8 dereferenceable(52) %0) #1 comdat align 2 {
  %2 = alloca ptr, align 8
  store ptr %0, ptr %2, align 8
  %3 = load ptr, ptr %2, align 8
  %4 = call noundef zeroext i1 @_ZNK4Node8is_StoreEv(ptr noundef nonnull align 8 dereferenceable(52) %3)
  br i1 %4, label %5, label %7

5:                                                ; preds = %1
  %6 = call noundef ptr @_ZNK4Node8as_StoreEv(ptr noundef nonnull align 8 dereferenceable(52) %3)
  br label %8

7:                                                ; preds = %1
  br label %8

8:                                                ; preds = %7, %5
  %9 = phi ptr [ %6, %5 ], [ null, %7 ]
  ret ptr %9
}

; Function Attrs: mustprogress nounwind uwtable
define linkonce_odr hidden noundef ptr @_ZNK4Node2inEj(ptr noundef nonnull align 8 dereferenceable(52) %0, i32 noundef %1) #1 comdat align 2 {
  %3 = alloca ptr, align 8
  %4 = alloca i32, align 4
  store ptr %0, ptr %3, align 8
  store i32 %1, ptr %4, align 4
  %5 = load ptr, ptr %3, align 8
  %6 = getelementptr inbounds %class.Node, ptr %5, i32 0, i32 1
  %7 = load ptr, ptr %6, align 8
  %8 = load i32, ptr %4, align 4
  %9 = zext i32 %8 to i64
  %10 = getelementptr inbounds ptr, ptr %7, i64 %9
  %11 = load ptr, ptr %10, align 8
  ret ptr %11
}

; Function Attrs: mustprogress nounwind uwtable
define hidden { ptr, i8 } @_ZNK25MergePrimitiveArrayStores29find_def_store_unidirectionalEPK9StoreNode(ptr noundef nonnull align 8 dereferenceable(16) %0, ptr noundef %1) #1 align 2 {
  %3 = alloca %"class.MergePrimitiveArrayStores::Status", align 8
  %4 = alloca ptr, align 8
  %5 = alloca ptr, align 8
  %6 = alloca ptr, align 8
  store ptr %0, ptr %4, align 8
  store ptr %1, ptr %5, align 8
  %7 = load ptr, ptr %4, align 8
  %8 = load ptr, ptr %5, align 8
  %9 = call noundef ptr @_ZNK4Node2inEj(ptr noundef nonnull align 8 dereferenceable(52) %8, i32 noundef 1)
  %10 = call noundef ptr @_ZNK4Node9isa_StoreEv(ptr noundef nonnull align 8 dereferenceable(52) %9)
  store ptr %10, ptr %6, align 8
  %11 = load ptr, ptr %6, align 8
  %12 = call noundef zeroext i1 @_ZNK25MergePrimitiveArrayStores19is_compatible_storeEPK9StoreNode(ptr noundef nonnull align 8 dereferenceable(16) %7, ptr noundef %11)
  br i1 %12, label %19, label %13

13:                                               ; preds = %2
  %14 = call { ptr, i8 } @_ZN25MergePrimitiveArrayStores6Status12make_failureEv()
  %15 = getelementptr inbounds { ptr, i8 }, ptr %3, i32 0, i32 0
  %16 = extractvalue { ptr, i8 } %14, 0
  store ptr %16, ptr %15, align 8
  %17 = getelementptr inbounds { ptr, i8 }, ptr %3, i32 0, i32 1
  %18 = extractvalue { ptr, i8 } %14, 1
  store i8 %18, ptr %17, align 8
  br label %29

19:                                               ; preds = %2
  %20 = load ptr, ptr %6, align 8
  %21 = load ptr, ptr %5, align 8
  %22 = load ptr, ptr %6, align 8
  %23 = call noundef i32 @_ZN25MergePrimitiveArrayStores19cfg_status_for_pairEPK9StoreNodeS2_(ptr noundef %21, ptr noundef %22)
  %24 = call { ptr, i8 } @_ZN25MergePrimitiveArrayStores6Status4makeEP9StoreNodeNS_9CFGStatusE(ptr noundef %20, i32 noundef %23)
  %25 = getelementptr inbounds { ptr, i8 }, ptr %3, i32 0, i32 0
  %26 = extractvalue { ptr, i8 } %24, 0
  store ptr %26, ptr %25, align 8
  %27 = getelementptr inbounds { ptr, i8 }, ptr %3, i32 0, i32 1
  %28 = extractvalue { ptr, i8 } %24, 1
  store i8 %28, ptr %27, align 8
  br label %29

29:                                               ; preds = %19, %13
  %30 = load { ptr, i8 }, ptr %3, align 8
  ret { ptr, i8 } %30
}

; Function Attrs: mustprogress nounwind uwtable
define hidden { ptr, i8 } @_ZNK25MergePrimitiveArrayStores14find_def_storeEPK9StoreNode(ptr noundef nonnull align 8 dereferenceable(16) %0, ptr noundef %1) #1 align 2 {
  %3 = alloca %"class.MergePrimitiveArrayStores::Status", align 8
  %4 = alloca ptr, align 8
  %5 = alloca ptr, align 8
  store ptr %0, ptr %4, align 8
  store ptr %1, ptr %5, align 8
  %6 = load ptr, ptr %4, align 8
  %7 = load ptr, ptr %5, align 8
  %8 = call { ptr, i8 } @_ZNK25MergePrimitiveArrayStores29find_def_store_unidirectionalEPK9StoreNode(ptr noundef nonnull align 8 dereferenceable(16) %6, ptr noundef %7)
  %9 = getelementptr inbounds { ptr, i8 }, ptr %3, i32 0, i32 0
  %10 = extractvalue { ptr, i8 } %8, 0
  store ptr %10, ptr %9, align 8
  %11 = getelementptr inbounds { ptr, i8 }, ptr %3, i32 0, i32 1
  %12 = extractvalue { ptr, i8 } %8, 1
  store i8 %12, ptr %11, align 8
  %13 = load { ptr, i8 }, ptr %3, align 8
  ret { ptr, i8 } %13
}